
led.elf:     file format elf32-littlearm

Disassembly of section .text:

00000000 <_start>:
   0:	e3a00207 	mov	r0, #1879048192	; 0x70000000
   4:	e3800013 	orr	r0, r0, #19	; 0x13
   8:	ee0f0f92 	mcr	15, 0, r0, cr15, cr2, {4}
   c:	e59f0010 	ldr	r0, [pc, #16]	; 24 <halt+0x4>
  10:	e3a01000 	mov	r1, #0	; 0x0
  14:	e5801000 	str	r1, [r0]
  18:	e3a0da02 	mov	sp, #8192	; 0x2000
  1c:	eb00000e 	bl	5c <xxxxx>

00000020 <halt>:
  20:	eafffffe 	b	20 <halt>
  24:	7e004000 	.word	0x7e004000

00000028 <delay>:
  28:	e1a0c00d 	mov	ip, sp
  2c:	e92dd800 	push	{fp, ip, lr, pc}
  30:	e24cb004 	sub	fp, ip, #4	; 0x4
  34:	e24dd004 	sub	sp, sp, #4	; 0x4
  38:	e3a03801 	mov	r3, #65536	; 0x10000
  3c:	e50b3010 	str	r3, [fp, #-16]
  40:	e51b3010 	ldr	r3, [fp, #-16]
  44:	e2433001 	sub	r3, r3, #1	; 0x1
  48:	e50b3010 	str	r3, [fp, #-16]
  4c:	e51b3010 	ldr	r3, [fp, #-16]
  50:	e3730001 	cmn	r3, #1	; 0x1
  54:	1afffff9 	bne	40 <delay+0x18>
  58:	e99da800 	ldmib	sp, {fp, sp, pc}

0000005c <xxxxx>:
  5c:	e1a0c00d 	mov	ip, sp
  60:	e92dd800 	push	{fp, ip, lr, pc}
  64:	e24cb004 	sub	fp, ip, #4	; 0x4
  68:	e24dd00c 	sub	sp, sp, #12	; 0xc
  6c:	e3a03000 	mov	r3, #0	; 0x0
  70:	e50b3018 	str	r3, [fp, #-24]
  74:	e59f3048 	ldr	r3, [pc, #72]	; c4 <xxxxx+0x68>
  78:	e50b3014 	str	r3, [fp, #-20]
  7c:	e59f3044 	ldr	r3, [pc, #68]	; c8 <xxxxx+0x6c>
  80:	e50b3010 	str	r3, [fp, #-16]
  84:	e51b2014 	ldr	r2, [fp, #-20]
  88:	e59f303c 	ldr	r3, [pc, #60]	; cc <xxxxx+0x70>
  8c:	e5823000 	str	r3, [r2]
  90:	e51b2018 	ldr	r2, [fp, #-24]
  94:	e51b3010 	ldr	r3, [fp, #-16]
  98:	e5832000 	str	r2, [r3]
  9c:	e51b3018 	ldr	r3, [fp, #-24]
  a0:	e2833001 	add	r3, r3, #1	; 0x1
  a4:	e50b3018 	str	r3, [fp, #-24]
  a8:	e51b3018 	ldr	r3, [fp, #-24]
  ac:	e3530010 	cmp	r3, #16	; 0x10
  b0:	1a000001 	bne	bc <xxxxx+0x60>
  b4:	e3a03000 	mov	r3, #0	; 0x0
  b8:	e50b3018 	str	r3, [fp, #-24]
  bc:	ebffffd9 	bl	28 <delay>
  c0:	eafffff2 	b	90 <xxxxx+0x34>
  c4:	7f008820 	.word	0x7f008820
  c8:	7f008824 	.word	0x7f008824
  cc:	00001111 	.word	0x00001111